; Function Attrs: mustprogress uwtable
define hidden noundef ptr @_ZN7datalog19sparse_table_plugin8mk_emptyERKNS_15table_signatureE(ptr noundef nonnull align 8 dereferenceable(56) %this, ptr noundef nonnull align 8 dereferenceable(12) %s) unnamed_addr #3 align 2 {
entry:
  %m_pool = getelementptr inbounds i8, ptr %this, i64 32
  %call.i = tail call noundef ptr @_ZNK9table2mapI17default_map_entryIN7datalog15table_signatureEP10ptr_vectorINS1_12sparse_tableEEENS2_4hashENS2_2eqEE9find_coreERKS2_(ptr noundef nonnull align 8 dereferenceable(24) %m_pool, ptr noundef nonnull align 8 dereferenceable(12) %s)
  %tobool.i.not = icmp eq ptr %call.i, null
  br i1 %tobool.i.not, label %if.then, label %lor.lhs.false

lor.lhs.false:                                    ; preds = %entry
  %m_value.i = getelementptr inbounds i8, ptr %call.i, i64 24
  %0 = load ptr, ptr %m_value.i, align 8
  %1 = load ptr, ptr %0, align 8
  %cmp.i = icmp eq ptr %1, null
  br i1 %cmp.i, label %if.then, label %_ZNK6vectorIPN7datalog12sparse_tableELb0EjE5emptyEv.exit

_ZNK6vectorIPN7datalog12sparse_tableELb0EjE5emptyEv.exit: ; preds = %lor.lhs.false
  %arrayidx.i = getelementptr inbounds i8, ptr %1, i64 -4
  %2 = load i32, ptr %arrayidx.i, align 4
  %cmp3.i = icmp eq i32 %2, 0
  br i1 %cmp3.i, label %if.then, label %_ZN6vectorIPN7datalog12sparse_tableELb0EjE4backEv.exit

if.then:                                          ; preds = %lor.lhs.false, %entry, %_ZNK6vectorIPN7datalog12sparse_tableELb0EjE5emptyEv.exit
  %call3 = tail call noalias noundef ptr @_ZN6memory8allocateEm(i64 noundef 184)
  tail call void @_ZN7datalog12sparse_tableC2ERNS_19sparse_table_pluginERKNS_15table_signatureEj(ptr noundef nonnull align 8 dereferenceable(184) %call3, ptr noundef nonnull align 8 dereferenceable(56) %this, ptr noundef nonnull align 8 dereferenceable(12) %s, i32 noundef 0)
  br label %return

_ZN6vectorIPN7datalog12sparse_tableELb0EjE4backEv.exit: ; preds = %_ZNK6vectorIPN7datalog12sparse_tableELb0EjE5emptyEv.exit
  %3 = add i32 %2, -1
  %4 = zext i32 %3 to i64
  %arrayidx.i1.i = getelementptr inbounds ptr, ptr %1, i64 %4
  %5 = load ptr, ptr %arrayidx.i1.i, align 8
  store i32 %3, ptr %arrayidx.i, align 4
  br label %return

return:                                           ; preds = %_ZN6vectorIPN7datalog12sparse_tableELb0EjE4backEv.exit, %if.then
  %retval.0 = phi ptr [ %call3, %if.then ], [ %5, %_ZN6vectorIPN7datalog12sparse_tableELb0EjE4backEv.exit ]
  ret ptr %retval.0
}